(dp1
S'dagger'
p2
I0
sS'gold'
p3
I0
sS'f_vil'
p4
I0
sS'last_map'
p5
NsS'misc'
p6
(lp7
sS'boots'
p8
I0
sS'sheild_maxhp'
p9
I50
sS'xp'
p10
I0
sS'hotel_treasure'
p11
(lp12
I0
aI0
aI0
aI0
asS'rose'
p13
I0
sS'eqp_weapon'
p14
NsS'lamp'
p15
I0
sS'book'
p16
I0
sS'b_h_vil'
p17
I0
sS'bow_arrow_first'
p18
I0
sS'max_hp'
p19
F100
sS'locket'
p20
I0
sS'eqp_armour'
p21
NsS'pirate'
p22
I0
sS'talk_vil'
p23
(dp24
S'./maps/village2_out1.tmx'
p25
(lp26
I0
asS'./maps/spooky.tmx'
p27
(lp28
I0
asS'./maps/village2_inside.tmx'
p29
(lp30
I0
aI0
aI0
aI0
aI0
aI0
aI0
asS'./maps/village1.tmx'
p31
(lp32
I0
aI0
aI0
asS'./maps/ship.tmx'
p33
(lp34
I0
assS'pirate_map'
p35
I0
sS'hp'
p36
F100
sS'last_frm'
p37
I0
sS'fish_rod'
p38
I0
sS'spook'
p39
I0
sS'h_level'
p40
I1
sS'sheild_hp'
p41
I0
sS'flagtreasure'
p42
(lp43
I0
aI0
aI0
aI0
aI0
aI0
aI0
aI0
aI0
aI0
asS'save'
p44
I0
sS'pirate_vil'
p45
I0
sS'sheild_first'
p46
I0
sS'arrow_count'
p47
I0
s.